; Function Attrs: nofree norecurse nosync nounwind sspstrong memory(readwrite, inaccessiblemem: none) uwtable
define dso_local i64 @iov_discard_front_undoable(ptr noundef captures(none) %iov, ptr noundef captures(none) %iov_cnt, i64 noundef %bytes, ptr noundef writeonly %undo) local_unnamed_addr #14 {
entry:
  %tobool.not = icmp eq ptr %undo, null
  br i1 %tobool.not, label %if.end, label %if.then

if.then:                                          ; preds = %entry
  store ptr null, ptr %undo, align 8
  br label %if.end

if.end:                                           ; preds = %if.then, %entry
  %0 = load ptr, ptr %iov, align 8
  %.pr = load i32, ptr %iov_cnt, align 4
  %cmp.not27 = icmp eq i32 %.pr, 0
  br i1 %cmp.not27, label %for.end, label %for.body

for.body:                                         ; preds = %if.end, %if.end8
  %cur.030 = phi ptr [ %incdec.ptr, %if.end8 ], [ %0, %if.end ]
  %total.029 = phi i64 [ %add12, %if.end8 ], [ 0, %if.end ]
  %bytes.addr.028 = phi i64 [ %sub10, %if.end8 ], [ %bytes, %if.end ]
  %1 = phi i32 [ %sub13, %if.end8 ], [ %.pr, %if.end ]
  %iov_len = getelementptr inbounds nuw i8, ptr %cur.030, i64 8
  %2 = load i64, ptr %iov_len, align 8
  %cmp1 = icmp ugt i64 %2, %bytes.addr.028
  br i1 %cmp1, label %if.then2, label %if.end8

if.then2:                                         ; preds = %for.body
  %iov_len.le = getelementptr inbounds nuw i8, ptr %cur.030, i64 8
  br i1 %tobool.not, label %if.end6, label %if.then4

if.then4:                                         ; preds = %if.then2
  store ptr %cur.030, ptr %undo, align 8
  %orig = getelementptr inbounds nuw i8, ptr %undo, i64 8
  tail call void @llvm.memcpy.p0.p0.i64(ptr noundef nonnull align 8 dereferenceable(16) %orig, ptr noundef nonnull align 8 dereferenceable(16) %cur.030, i64 16, i1 false)
  %.pre = load i64, ptr %iov_len.le, align 8
  br label %if.end6

if.end6:                                          ; preds = %if.then4, %if.then2
  %3 = phi i64 [ %.pre, %if.then4 ], [ %2, %if.then2 ]
  %4 = load ptr, ptr %cur.030, align 8
  %add.ptr = getelementptr i8, ptr %4, i64 %bytes.addr.028
  store ptr %add.ptr, ptr %cur.030, align 8
  %sub = sub i64 %3, %bytes.addr.028
  store i64 %sub, ptr %iov_len.le, align 8
  %add = add i64 %total.029, %bytes.addr.028
  br label %for.end

if.end8:                                          ; preds = %for.body
  %sub10 = sub nuw i64 %bytes.addr.028, %2
  %add12 = add i64 %2, %total.029
  %sub13 = add i32 %1, -1
  store i32 %sub13, ptr %iov_cnt, align 4
  %incdec.ptr = getelementptr i8, ptr %cur.030, i64 16
  %cmp.not = icmp eq i32 %sub13, 0
  br i1 %cmp.not, label %for.end, label %for.body, !llvm.loop !25

for.end:                                          ; preds = %if.end8, %if.end, %if.end6
  %cur.023 = phi ptr [ %cur.030, %if.end6 ], [ %0, %if.end ], [ %incdec.ptr, %if.end8 ]
  %total.1 = phi i64 [ %add, %if.end6 ], [ 0, %if.end ], [ %add12, %if.end8 ]
  store ptr %cur.023, ptr %iov, align 8
  ret i64 %total.1
}